; Function Attrs: mustprogress norecurse uwtable
define internal fastcc noundef float @_ZL24calculateAccuracyPercentRKN2cv3MatES2_(ptr noundef nonnull align 8 dereferenceable(96) %0, ptr noundef nonnull align 8 dereferenceable(96) %1) unnamed_addr #3 personality ptr @__gxx_personality_v0 {
  %3 = alloca %"class.cv::_InputArray", align 8
  %4 = alloca %"class.cv::MatExpr", align 8
  call void @llvm.lifetime.start.p0(i64 24, ptr nonnull %3) #17
  call void @llvm.lifetime.start.p0(i64 352, ptr nonnull %4) #17
  call void @_ZN2cveqERKNS_3MatES2_(ptr dead_on_unwind nonnull writable sret(%"class.cv::MatExpr") align 8 %4, ptr noundef nonnull align 8 dereferenceable(96) %0, ptr noundef nonnull align 8 dereferenceable(96) %1)
  invoke void @_ZN2cv11_InputArrayC1ERKNS_7MatExprE(ptr noundef nonnull align 8 dereferenceable(24) %3, ptr noundef nonnull align 8 dereferenceable(352) %4)
          to label %5 unwind label %17

5:                                                ; preds = %2
  %6 = invoke noundef i32 @_ZN2cv12countNonZeroERKNS_11_InputArrayE(ptr noundef nonnull align 8 dereferenceable(24) %3)
          to label %7 unwind label %19

7:                                                ; preds = %5
  %8 = sitofp i32 %6 to float
  %9 = fmul float %8, 1.000000e+02
  %10 = getelementptr inbounds nuw i8, ptr %1, i64 8
  %11 = load i32, ptr %10, align 8, !tbaa !44
  %12 = sitofp i32 %11 to float
  %13 = fdiv float %9, %12
  %14 = getelementptr inbounds nuw i8, ptr %4, i64 208
  call void @_ZN2cv3MatD1Ev(ptr noundef nonnull align 8 dereferenceable(96) %14) #17
  %15 = getelementptr inbounds nuw i8, ptr %4, i64 112
  call void @_ZN2cv3MatD1Ev(ptr noundef nonnull align 8 dereferenceable(96) %15) #17
  %16 = getelementptr inbounds nuw i8, ptr %4, i64 16
  call void @_ZN2cv3MatD1Ev(ptr noundef nonnull align 8 dereferenceable(96) %16) #17
  call void @llvm.lifetime.end.p0(i64 352, ptr nonnull %4) #17
  call void @llvm.lifetime.end.p0(i64 24, ptr nonnull %3) #17
  ret float %13

17:                                               ; preds = %2
  %18 = landingpad { ptr, i32 }
          cleanup
  br label %21

19:                                               ; preds = %5
  %20 = landingpad { ptr, i32 }
          cleanup
  br label %21

21:                                               ; preds = %19, %17
  %.pn = phi { ptr, i32 } [ %20, %19 ], [ %18, %17 ]
  call void @_ZN2cv7MatExprD2Ev(ptr noundef nonnull align 8 dereferenceable(352) %4) #17
  call void @llvm.lifetime.end.p0(i64 352, ptr nonnull %4) #17
  call void @llvm.lifetime.end.p0(i64 24, ptr nonnull %3) #17
  resume { ptr, i32 } %.pn
}